target datalayout = "e-m:e-p270:32:32-p271:32:32-p272:64:64-i64:64-i128:128-f80:128-n8:16:32:64-S128"
target triple = "x86_64-unknown-linux-gnu"

%"struct.Assimp::Blender::PlaneP2T" = type { %class.aiVector3t, %class.aiVector3t }
%class.aiVector3t = type { float, float, float }
%class.aiMatrix4x4t = type { float, float, float, float, float, float, float, float, float, float, float, float, float, float, float, float }

; Function Attrs: mustprogress nounwind uwtable
define linkonce_odr noundef float @_ZSt4sqrtf(float noundef %__x) #0 comdat {
entry:
  %__x.addr = alloca float, align 4
  store float %__x, ptr %__x.addr, align 4
  %0 = load float, ptr %__x.addr, align 4
  %call = call float @sqrtf(float noundef %0) #14
  ret float %call
}

; Function Attrs: mustprogress nounwind uwtable
define linkonce_odr hidden noundef float @_ZNK10aiVector3tIfE12SquareLengthEv(ptr noundef nonnull align 4 dereferenceable(12) %this) #0 comdat align 2 {
entry:
  %this.addr = alloca ptr, align 8
  store ptr %this, ptr %this.addr, align 8
  %this1 = load ptr, ptr %this.addr, align 8
  %x = getelementptr inbounds %class.aiVector3t, ptr %this1, i32 0, i32 0
  %0 = load float, ptr %x, align 4
  %x2 = getelementptr inbounds %class.aiVector3t, ptr %this1, i32 0, i32 0
  %1 = load float, ptr %x2, align 4
  %y = getelementptr inbounds %class.aiVector3t, ptr %this1, i32 0, i32 1
  %2 = load float, ptr %y, align 4
  %y3 = getelementptr inbounds %class.aiVector3t, ptr %this1, i32 0, i32 1
  %3 = load float, ptr %y3, align 4
  %mul4 = fmul float %2, %3
  %4 = call float @llvm.fmuladd.f32(float %0, float %1, float %mul4)
  %z = getelementptr inbounds %class.aiVector3t, ptr %this1, i32 0, i32 2
  %5 = load float, ptr %z, align 4
  %z5 = getelementptr inbounds %class.aiVector3t, ptr %this1, i32 0, i32 2
  %6 = load float, ptr %z5, align 4
  %7 = call float @llvm.fmuladd.f32(float %5, float %6, float %4)
  ret float %7
}

; Function Attrs: mustprogress nounwind uwtable
define linkonce_odr hidden noundef nonnull align 4 dereferenceable(12) ptr @_ZN10aiVector3tIfEdVEf(ptr noundef nonnull align 4 dereferenceable(12) %this, float noundef %f) #0 comdat align 2 {
entry:
  %retval = alloca ptr, align 8
  %this.addr = alloca ptr, align 8
  %f.addr = alloca float, align 4
  %invF = alloca float, align 4
  store ptr %this, ptr %this.addr, align 8
  store float %f, ptr %f.addr, align 4
  %this1 = load ptr, ptr %this.addr, align 8
  %0 = load float, ptr %f.addr, align 4
  %cmp = fcmp oeq float %0, 0.000000e+00
  br i1 %cmp, label %if.then, label %if.end

if.then:                                          ; preds = %entry
  store ptr %this1, ptr %retval, align 8
  br label %return

if.end:                                           ; preds = %entry
  %1 = load float, ptr %f.addr, align 4
  %div = fdiv float 1.000000e+00, %1
  store float %div, ptr %invF, align 4
  %2 = load float, ptr %invF, align 4
  %x = getelementptr inbounds %class.aiVector3t, ptr %this1, i32 0, i32 0
  %3 = load float, ptr %x, align 4
  %mul = fmul float %3, %2
  store float %mul, ptr %x, align 4
  %4 = load float, ptr %invF, align 4
  %y = getelementptr inbounds %class.aiVector3t, ptr %this1, i32 0, i32 1
  %5 = load float, ptr %y, align 4
  %mul2 = fmul float %5, %4
  store float %mul2, ptr %y, align 4
  %6 = load float, ptr %invF, align 4
  %z = getelementptr inbounds %class.aiVector3t, ptr %this1, i32 0, i32 2
  %7 = load float, ptr %z, align 4
  %mul3 = fmul float %7, %6
  store float %mul3, ptr %z, align 4
  store ptr %this1, ptr %retval, align 8
  br label %return

return:                                           ; preds = %if.end, %if.then
  %8 = load ptr, ptr %retval, align 8
  ret ptr %8
}

; Function Attrs: mustprogress uwtable
define linkonce_odr hidden noundef float @_ZNK10aiVector3tIfE6LengthEv(ptr noundef nonnull align 4 dereferenceable(12) %this) #2 comdat align 2 {
entry:
  %this.addr = alloca ptr, align 8
  store ptr %this, ptr %this.addr, align 8
  %this1 = load ptr, ptr %this.addr, align 8
  %call = call noundef float @_ZNK10aiVector3tIfE12SquareLengthEv(ptr noundef nonnull align 4 dereferenceable(12) %this1)
  %call2 = call noundef float @_ZSt4sqrtf(float noundef %call)
  ret float %call2
}

; Function Attrs: mustprogress nounwind uwtable
define linkonce_odr hidden void @_ZN12aiMatrix4x4tIfEC2Ev(ptr noundef nonnull align 4 dereferenceable(64) %this) unnamed_addr #0 comdat align 2 {
entry:
  %this.addr = alloca ptr, align 8
  store ptr %this, ptr %this.addr, align 8
  %this1 = load ptr, ptr %this.addr, align 8
  %a1 = getelementptr inbounds %class.aiMatrix4x4t, ptr %this1, i32 0, i32 0
  store float 1.000000e+00, ptr %a1, align 4
  %a2 = getelementptr inbounds %class.aiMatrix4x4t, ptr %this1, i32 0, i32 1
  store float 0.000000e+00, ptr %a2, align 4
  %a3 = getelementptr inbounds %class.aiMatrix4x4t, ptr %this1, i32 0, i32 2
  store float 0.000000e+00, ptr %a3, align 4
  %a4 = getelementptr inbounds %class.aiMatrix4x4t, ptr %this1, i32 0, i32 3
  store float 0.000000e+00, ptr %a4, align 4
  %b1 = getelementptr inbounds %class.aiMatrix4x4t, ptr %this1, i32 0, i32 4
  store float 0.000000e+00, ptr %b1, align 4
  %b2 = getelementptr inbounds %class.aiMatrix4x4t, ptr %this1, i32 0, i32 5
  store float 1.000000e+00, ptr %b2, align 4
  %b3 = getelementptr inbounds %class.aiMatrix4x4t, ptr %this1, i32 0, i32 6
  store float 0.000000e+00, ptr %b3, align 4
  %b4 = getelementptr inbounds %class.aiMatrix4x4t, ptr %this1, i32 0, i32 7
  store float 0.000000e+00, ptr %b4, align 4
  %c1 = getelementptr inbounds %class.aiMatrix4x4t, ptr %this1, i32 0, i32 8
  store float 0.000000e+00, ptr %c1, align 4
  %c2 = getelementptr inbounds %class.aiMatrix4x4t, ptr %this1, i32 0, i32 9
  store float 0.000000e+00, ptr %c2, align 4
  %c3 = getelementptr inbounds %class.aiMatrix4x4t, ptr %this1, i32 0, i32 10
  store float 1.000000e+00, ptr %c3, align 4
  %c4 = getelementptr inbounds %class.aiMatrix4x4t, ptr %this1, i32 0, i32 11
  store float 0.000000e+00, ptr %c4, align 4
  %d1 = getelementptr inbounds %class.aiMatrix4x4t, ptr %this1, i32 0, i32 12
  store float 0.000000e+00, ptr %d1, align 4
  %d2 = getelementptr inbounds %class.aiMatrix4x4t, ptr %this1, i32 0, i32 13
  store float 0.000000e+00, ptr %d2, align 4
  %d3 = getelementptr inbounds %class.aiMatrix4x4t, ptr %this1, i32 0, i32 14
  store float 0.000000e+00, ptr %d3, align 4
  %d4 = getelementptr inbounds %class.aiMatrix4x4t, ptr %this1, i32 0, i32 15
  store float 1.000000e+00, ptr %d4, align 4
  ret void
}

; Function Attrs: mustprogress uwtable
define linkonce_odr hidden noundef nonnull align 4 dereferenceable(12) ptr @_ZN10aiVector3tIfE9NormalizeEv(ptr noundef nonnull align 4 dereferenceable(12) %this) #2 comdat align 2 {
entry:
  %retval = alloca ptr, align 8
  %this.addr = alloca ptr, align 8
  %l = alloca float, align 4
  store ptr %this, ptr %this.addr, align 8
  %this1 = load ptr, ptr %this.addr, align 8
  %call = call noundef float @_ZNK10aiVector3tIfE6LengthEv(ptr noundef nonnull align 4 dereferenceable(12) %this1)
  store float %call, ptr %l, align 4
  %0 = load float, ptr %l, align 4
  %cmp = fcmp oeq float %0, 0.000000e+00
  br i1 %cmp, label %if.then, label %if.end

if.then:                                          ; preds = %entry
  store ptr %this1, ptr %retval, align 8
  br label %return

if.end:                                           ; preds = %entry
  %call2 = call noundef float @_ZNK10aiVector3tIfE6LengthEv(ptr noundef nonnull align 4 dereferenceable(12) %this1)
  %call3 = call noundef nonnull align 4 dereferenceable(12) ptr @_ZN10aiVector3tIfEdVEf(ptr noundef nonnull align 4 dereferenceable(12) %this1, float noundef %call2)
  store ptr %this1, ptr %retval, align 8
  br label %return

return:                                           ; preds = %if.end, %if.then
  %1 = load ptr, ptr %retval, align 8
  ret ptr %1
}

; Function Attrs: mustprogress uwtable
define linkonce_odr hidden { <2 x float>, float } @_ZeoIfE10aiVector3tIT_ERKS2_S4_(ptr noundef nonnull align 4 dereferenceable(12) %v1, ptr noundef nonnull align 4 dereferenceable(12) %v2) #2 comdat {
entry:
  %retval = alloca %class.aiVector3t, align 4
  %v1.addr = alloca ptr, align 8
  %v2.addr = alloca ptr, align 8
  %retval.coerce = alloca { <2 x float>, float }, align 8
  store ptr %v1, ptr %v1.addr, align 8
  store ptr %v2, ptr %v2.addr, align 8
  %0 = load ptr, ptr %v1.addr, align 8
  %y = getelementptr inbounds %class.aiVector3t, ptr %0, i32 0, i32 1
  %1 = load float, ptr %y, align 4
  %2 = load ptr, ptr %v2.addr, align 8
  %z = getelementptr inbounds %class.aiVector3t, ptr %2, i32 0, i32 2
  %3 = load float, ptr %z, align 4
  %4 = load ptr, ptr %v1.addr, align 8
  %z1 = getelementptr inbounds %class.aiVector3t, ptr %4, i32 0, i32 2
  %5 = load float, ptr %z1, align 4
  %6 = load ptr, ptr %v2.addr, align 8
  %y2 = getelementptr inbounds %class.aiVector3t, ptr %6, i32 0, i32 1
  %7 = load float, ptr %y2, align 4
  %mul3 = fmul float %5, %7
  %neg = fneg float %mul3
  %8 = call float @llvm.fmuladd.f32(float %1, float %3, float %neg)
  %9 = load ptr, ptr %v1.addr, align 8
  %z4 = getelementptr inbounds %class.aiVector3t, ptr %9, i32 0, i32 2
  %10 = load float, ptr %z4, align 4
  %11 = load ptr, ptr %v2.addr, align 8
  %x = getelementptr inbounds %class.aiVector3t, ptr %11, i32 0, i32 0
  %12 = load float, ptr %x, align 4
  %13 = load ptr, ptr %v1.addr, align 8
  %x5 = getelementptr inbounds %class.aiVector3t, ptr %13, i32 0, i32 0
  %14 = load float, ptr %x5, align 4
  %15 = load ptr, ptr %v2.addr, align 8
  %z6 = getelementptr inbounds %class.aiVector3t, ptr %15, i32 0, i32 2
  %16 = load float, ptr %z6, align 4
  %mul7 = fmul float %14, %16
  %neg8 = fneg float %mul7
  %17 = call float @llvm.fmuladd.f32(float %10, float %12, float %neg8)
  %18 = load ptr, ptr %v1.addr, align 8
  %x9 = getelementptr inbounds %class.aiVector3t, ptr %18, i32 0, i32 0
  %19 = load float, ptr %x9, align 4
  %20 = load ptr, ptr %v2.addr, align 8
  %y10 = getelementptr inbounds %class.aiVector3t, ptr %20, i32 0, i32 1
  %21 = load float, ptr %y10, align 4
  %22 = load ptr, ptr %v1.addr, align 8
  %y11 = getelementptr inbounds %class.aiVector3t, ptr %22, i32 0, i32 1
  %23 = load float, ptr %y11, align 4
  %24 = load ptr, ptr %v2.addr, align 8
  %x12 = getelementptr inbounds %class.aiVector3t, ptr %24, i32 0, i32 0
  %25 = load float, ptr %x12, align 4
  %mul13 = fmul float %23, %25
  %neg14 = fneg float %mul13
  %26 = call float @llvm.fmuladd.f32(float %19, float %21, float %neg14)
  call void @_ZN10aiVector3tIfEC2Efff(ptr noundef nonnull align 4 dereferenceable(12) %retval, float noundef %8, float noundef %17, float noundef %26)
  call void @llvm.memcpy.p0.p0.i64(ptr align 8 %retval.coerce, ptr align 4 %retval, i64 12, i1 false)
  %27 = load { <2 x float>, float }, ptr %retval.coerce, align 8
  ret { <2 x float>, float } %27
}

; Function Attrs: mustprogress nounwind uwtable
define linkonce_odr noundef float @_ZSt4fabsf(float noundef %__x) #0 comdat {
entry:
  %__x.addr = alloca float, align 4
  store float %__x, ptr %__x.addr, align 4
  %0 = load float, ptr %__x.addr, align 4
  %1 = call float @llvm.fabs.f32(float %0)
  ret float %1
}

; Function Attrs: mustprogress nounwind uwtable
define linkonce_odr hidden noundef float @_ZmlIfET_RK10aiVector3tIS0_ES4_(ptr noundef nonnull align 4 dereferenceable(12) %v1, ptr noundef nonnull align 4 dereferenceable(12) %v2) #0 comdat {
entry:
  %v1.addr = alloca ptr, align 8
  %v2.addr = alloca ptr, align 8
  store ptr %v1, ptr %v1.addr, align 8
  store ptr %v2, ptr %v2.addr, align 8
  %0 = load ptr, ptr %v1.addr, align 8
  %x = getelementptr inbounds %class.aiVector3t, ptr %0, i32 0, i32 0
  %1 = load float, ptr %x, align 4
  %2 = load ptr, ptr %v2.addr, align 8
  %x1 = getelementptr inbounds %class.aiVector3t, ptr %2, i32 0, i32 0
  %3 = load float, ptr %x1, align 4
  %4 = load ptr, ptr %v1.addr, align 8
  %y = getelementptr inbounds %class.aiVector3t, ptr %4, i32 0, i32 1
  %5 = load float, ptr %y, align 4
  %6 = load ptr, ptr %v2.addr, align 8
  %y2 = getelementptr inbounds %class.aiVector3t, ptr %6, i32 0, i32 1
  %7 = load float, ptr %y2, align 4
  %mul3 = fmul float %5, %7
  %8 = call float @llvm.fmuladd.f32(float %1, float %3, float %mul3)
  %9 = load ptr, ptr %v1.addr, align 8
  %z = getelementptr inbounds %class.aiVector3t, ptr %9, i32 0, i32 2
  %10 = load float, ptr %z, align 4
  %11 = load ptr, ptr %v2.addr, align 8
  %z4 = getelementptr inbounds %class.aiVector3t, ptr %11, i32 0, i32 2
  %12 = load float, ptr %z4, align 4
  %13 = call float @llvm.fmuladd.f32(float %10, float %12, float %8)
  ret float %13
}

; Function Attrs: mustprogress nounwind uwtable
define linkonce_odr hidden void @_ZN10aiVector3tIfEC2Efff(ptr noundef nonnull align 4 dereferenceable(12) %this, float noundef %_x, float noundef %_y, float noundef %_z) unnamed_addr #0 comdat align 2 {
entry:
  %this.addr = alloca ptr, align 8
  %_x.addr = alloca float, align 4
  %_y.addr = alloca float, align 4
  %_z.addr = alloca float, align 4
  store ptr %this, ptr %this.addr, align 8
  store float %_x, ptr %_x.addr, align 4
  store float %_y, ptr %_y.addr, align 4
  store float %_z, ptr %_z.addr, align 4
  %this1 = load ptr, ptr %this.addr, align 8
  %x = getelementptr inbounds %class.aiVector3t, ptr %this1, i32 0, i32 0
  %0 = load float, ptr %_x.addr, align 4
  store float %0, ptr %x, align 4
  %y = getelementptr inbounds %class.aiVector3t, ptr %this1, i32 0, i32 1
  %1 = load float, ptr %_y.addr, align 4
  store float %1, ptr %y, align 4
  %z = getelementptr inbounds %class.aiVector3t, ptr %this1, i32 0, i32 2
  %2 = load float, ptr %_z.addr, align 4
  store float %2, ptr %z, align 4
  ret void
}

; Function Attrs: mustprogress uwtable
define hidden void @_ZNK6Assimp21BlenderTessellatorP2T28GeneratePointTransformMatrixERKNS_7Blender8PlaneP2TE(ptr noalias sret(%class.aiMatrix4x4t) align 4 %agg.result, ptr noundef nonnull align 8 dereferenceable(8) %this, ptr noundef nonnull align 4 dereferenceable(24) %plane) #3 align 2 {
entry:
  %this.addr = alloca ptr, align 8
  %plane.addr = alloca ptr, align 8
  %sideA = alloca %class.aiVector3t, align 4
  %ref.tmp = alloca %class.aiVector3t, align 4
  %sideB = alloca %class.aiVector3t, align 4
  %tmp.coerce = alloca { <2 x float>, float }, align 8
  %ref.tmp6 = alloca %class.aiVector3t, align 4
  %tmp.coerce9 = alloca { <2 x float>, float }, align 8
  store ptr %this, ptr %this.addr, align 8
  store ptr %plane, ptr %plane.addr, align 8
  call void @_ZN10aiVector3tIfEC2Efff(ptr noundef nonnull align 4 dereferenceable(12) %sideA, float noundef 1.000000e+00, float noundef 0.000000e+00, float noundef 0.000000e+00)
  %0 = load ptr, ptr %plane.addr, align 8
  %normal = getelementptr inbounds %"struct.Assimp::Blender::PlaneP2T", ptr %0, i32 0, i32 1
  %call = call noundef float @_ZmlIfET_RK10aiVector3tIS0_ES4_(ptr noundef nonnull align 4 dereferenceable(12) %normal, ptr noundef nonnull align 4 dereferenceable(12) %sideA)
  %call2 = call noundef float @_ZSt4fabsf(float noundef %call)
  %cmp = fcmp ogt float %call2, 0x3FEFF7CEE0000000
  br i1 %cmp, label %if.then, label %if.end

if.then:                                          ; preds = %entry
  call void @_ZN10aiVector3tIfEC2Efff(ptr noundef nonnull align 4 dereferenceable(12) %ref.tmp, float noundef 0.000000e+00, float noundef 1.000000e+00, float noundef 0.000000e+00)
  call void @llvm.memcpy.p0.p0.i64(ptr align 4 %sideA, ptr align 4 %ref.tmp, i64 12, i1 false)
  br label %if.end

if.end:                                           ; preds = %if.then, %entry
  %1 = load ptr, ptr %plane.addr, align 8
  %normal3 = getelementptr inbounds %"struct.Assimp::Blender::PlaneP2T", ptr %1, i32 0, i32 1
  %call4 = call { <2 x float>, float } @_ZeoIfE10aiVector3tIT_ERKS2_S4_(ptr noundef nonnull align 4 dereferenceable(12) %normal3, ptr noundef nonnull align 4 dereferenceable(12) %sideA)
  store { <2 x float>, float } %call4, ptr %tmp.coerce, align 8
  call void @llvm.memcpy.p0.p0.i64(ptr align 4 %sideB, ptr align 8 %tmp.coerce, i64 12, i1 false)
  %call5 = call noundef nonnull align 4 dereferenceable(12) ptr @_ZN10aiVector3tIfE9NormalizeEv(ptr noundef nonnull align 4 dereferenceable(12) %sideB)
  %2 = load ptr, ptr %plane.addr, align 8
  %normal7 = getelementptr inbounds %"struct.Assimp::Blender::PlaneP2T", ptr %2, i32 0, i32 1
  %call8 = call { <2 x float>, float } @_ZeoIfE10aiVector3tIT_ERKS2_S4_(ptr noundef nonnull align 4 dereferenceable(12) %sideB, ptr noundef nonnull align 4 dereferenceable(12) %normal7)
  store { <2 x float>, float } %call8, ptr %tmp.coerce9, align 8
  call void @llvm.memcpy.p0.p0.i64(ptr align 4 %ref.tmp6, ptr align 8 %tmp.coerce9, i64 12, i1 false)
  call void @llvm.memcpy.p0.p0.i64(ptr align 4 %sideA, ptr align 4 %ref.tmp6, i64 12, i1 false)
  call void @_ZN12aiMatrix4x4tIfEC2Ev(ptr noundef nonnull align 4 dereferenceable(64) %agg.result) #14
  %x = getelementptr inbounds %class.aiVector3t, ptr %sideA, i32 0, i32 0
  %3 = load float, ptr %x, align 4
  %a1 = getelementptr inbounds %class.aiMatrix4x4t, ptr %agg.result, i32 0, i32 0
  store float %3, ptr %a1, align 4
  %y = getelementptr inbounds %class.aiVector3t, ptr %sideA, i32 0, i32 1
  %4 = load float, ptr %y, align 4
  %a2 = getelementptr inbounds %class.aiMatrix4x4t, ptr %agg.result, i32 0, i32 1
  store float %4, ptr %a2, align 4
  %z = getelementptr inbounds %class.aiVector3t, ptr %sideA, i32 0, i32 2
  %5 = load float, ptr %z, align 4
  %a3 = getelementptr inbounds %class.aiMatrix4x4t, ptr %agg.result, i32 0, i32 2
  store float %5, ptr %a3, align 4
  %x10 = getelementptr inbounds %class.aiVector3t, ptr %sideB, i32 0, i32 0
  %6 = load float, ptr %x10, align 4
  %b1 = getelementptr inbounds %class.aiMatrix4x4t, ptr %agg.result, i32 0, i32 4
  store float %6, ptr %b1, align 4
  %y11 = getelementptr inbounds %class.aiVector3t, ptr %sideB, i32 0, i32 1
  %7 = load float, ptr %y11, align 4
  %b2 = getelementptr inbounds %class.aiMatrix4x4t, ptr %agg.result, i32 0, i32 5
  store float %7, ptr %b2, align 4
  %z12 = getelementptr inbounds %class.aiVector3t, ptr %sideB, i32 0, i32 2
  %8 = load float, ptr %z12, align 4
  %b3 = getelementptr inbounds %class.aiMatrix4x4t, ptr %agg.result, i32 0, i32 6
  store float %8, ptr %b3, align 4
  %9 = load ptr, ptr %plane.addr, align 8
  %normal13 = getelementptr inbounds %"struct.Assimp::Blender::PlaneP2T", ptr %9, i32 0, i32 1
  %x14 = getelementptr inbounds %class.aiVector3t, ptr %normal13, i32 0, i32 0
  %10 = load float, ptr %x14, align 4
  %c1 = getelementptr inbounds %class.aiMatrix4x4t, ptr %agg.result, i32 0, i32 8
  store float %10, ptr %c1, align 4
  %11 = load ptr, ptr %plane.addr, align 8
  %normal15 = getelementptr inbounds %"struct.Assimp::Blender::PlaneP2T", ptr %11, i32 0, i32 1
  %y16 = getelementptr inbounds %class.aiVector3t, ptr %normal15, i32 0, i32 1
  %12 = load float, ptr %y16, align 4
  %c2 = getelementptr inbounds %class.aiMatrix4x4t, ptr %agg.result, i32 0, i32 9
  store float %12, ptr %c2, align 4
  %13 = load ptr, ptr %plane.addr, align 8
  %normal17 = getelementptr inbounds %"struct.Assimp::Blender::PlaneP2T", ptr %13, i32 0, i32 1
  %z18 = getelementptr inbounds %class.aiVector3t, ptr %normal17, i32 0, i32 2
  %14 = load float, ptr %z18, align 4
  %c3 = getelementptr inbounds %class.aiMatrix4x4t, ptr %agg.result, i32 0, i32 10
  store float %14, ptr %c3, align 4
  %15 = load ptr, ptr %plane.addr, align 8
  %centre = getelementptr inbounds %"struct.Assimp::Blender::PlaneP2T", ptr %15, i32 0, i32 0
  %x19 = getelementptr inbounds %class.aiVector3t, ptr %centre, i32 0, i32 0
  %16 = load float, ptr %x19, align 4
  %a4 = getelementptr inbounds %class.aiMatrix4x4t, ptr %agg.result, i32 0, i32 3
  store float %16, ptr %a4, align 4
  %17 = load ptr, ptr %plane.addr, align 8
  %centre20 = getelementptr inbounds %"struct.Assimp::Blender::PlaneP2T", ptr %17, i32 0, i32 0
  %y21 = getelementptr inbounds %class.aiVector3t, ptr %centre20, i32 0, i32 1
  %18 = load float, ptr %y21, align 4
  %b4 = getelementptr inbounds %class.aiMatrix4x4t, ptr %agg.result, i32 0, i32 7
  store float %18, ptr %b4, align 4
  %19 = load ptr, ptr %plane.addr, align 8
  %centre22 = getelementptr inbounds %"struct.Assimp::Blender::PlaneP2T", ptr %19, i32 0, i32 0
  %z23 = getelementptr inbounds %class.aiVector3t, ptr %centre22, i32 0, i32 2
  %20 = load float, ptr %z23, align 4
  %c4 = getelementptr inbounds %class.aiMatrix4x4t, ptr %agg.result, i32 0, i32 11
  store float %20, ptr %c4, align 4
  %call24 = call noundef nonnull align 4 dereferenceable(64) ptr @_ZN12aiMatrix4x4tIfE7InverseEv(ptr noundef nonnull align 4 dereferenceable(64) %agg.result)
  ret void
}