; Function Attrs: mustprogress uwtable
define hidden void @_ZNK6Assimp21BlenderTessellatorP2T28GeneratePointTransformMatrixERKNS_7Blender8PlaneP2TE(ptr noalias sret(%class.aiMatrix4x4t) align 4 %agg.result, ptr nocapture noundef nonnull readnone align 8 dereferenceable(8) %this, ptr nocapture noundef nonnull readonly align 4 dereferenceable(24) %plane) local_unnamed_addr #2 align 2 {
entry:
  %normal = getelementptr inbounds i8, ptr %plane, i64 12
  %0 = load <2 x float>, ptr %normal, align 4
  %1 = extractelement <2 x float> %0, i64 1
  %mul3.i = fmul float %1, 0.000000e+00
  %2 = extractelement <2 x float> %0, i64 0
  %3 = fadd float %2, %mul3.i
  %z.i10 = getelementptr inbounds i8, ptr %plane, i64 20
  %4 = load float, ptr %z.i10, align 4
  %5 = tail call noundef float @llvm.fmuladd.f32(float %4, float 0.000000e+00, float %3)
  %6 = tail call noundef float @llvm.fabs.f32(float %5)
  %cmp = fcmp ogt float %6, 0x3FEFF7CEE0000000
  %sideA.sroa.0.0 = select i1 %cmp, <2 x float> <float 0.000000e+00, float 1.000000e+00>, <2 x float> <float 1.000000e+00, float 0.000000e+00>
  %sideA.sroa.0.4.vec.extract50 = extractelement <2 x float> %sideA.sroa.0.0, i64 1
  %7 = fneg float %4
  %neg.i = fmul float %sideA.sroa.0.4.vec.extract50, %7
  %8 = tail call float @llvm.fmuladd.f32(float %1, float 0.000000e+00, float %neg.i)
  %sideA.sroa.0.0.vec.extract43 = extractelement <2 x float> %sideA.sroa.0.0, i64 0
  %neg8.i = fmul float %2, -0.000000e+00
  %9 = tail call float @llvm.fmuladd.f32(float %4, float %sideA.sroa.0.0.vec.extract43, float %neg8.i)
  %10 = fneg float %1
  %neg14.i = fmul float %sideA.sroa.0.0.vec.extract43, %10
  %11 = tail call float @llvm.fmuladd.f32(float %2, float %sideA.sroa.0.4.vec.extract50, float %neg14.i)
  %retval.sroa.0.0.vec.insert.i = insertelement <2 x float> poison, float %8, i64 0
  %retval.sroa.0.4.vec.insert.i = insertelement <2 x float> %retval.sroa.0.0.vec.insert.i, float %9, i64 1
  %mul4.i.i.i = fmul float %9, %9
  %12 = tail call float @llvm.fmuladd.f32(float %8, float %8, float %mul4.i.i.i)
  %13 = tail call noundef float @llvm.fmuladd.f32(float %11, float %11, float %12)
  %sqrt.i.i = tail call noundef float @llvm.sqrt.f32(float %13)
  %cmp.i = fcmp oeq float %sqrt.i.i, 0.000000e+00
  br i1 %cmp.i, label %_ZN10aiVector3tIfE9NormalizeEv.exit, label %_ZN10aiVector3tIfEdVEf.exit.i

_ZN10aiVector3tIfEdVEf.exit.i:                    ; preds = %entry
  %div.i.i = fdiv float 1.000000e+00, %sqrt.i.i
  %mul.i.i = fmul float %8, %div.i.i
  %sideB.sroa.0.0.vec.insert = insertelement <2 x float> poison, float %mul.i.i, i64 0
  %mul2.i.i = fmul float %9, %div.i.i
  %sideB.sroa.0.4.vec.insert = insertelement <2 x float> %sideB.sroa.0.0.vec.insert, float %mul2.i.i, i64 1
  %mul3.i.i = fmul float %11, %div.i.i
  br label %_ZN10aiVector3tIfE9NormalizeEv.exit

_ZN10aiVector3tIfE9NormalizeEv.exit:              ; preds = %entry, %_ZN10aiVector3tIfEdVEf.exit.i
  %sideB.sroa.9.0 = phi float [ %11, %entry ], [ %mul3.i.i, %_ZN10aiVector3tIfEdVEf.exit.i ]
  %sideB.sroa.0.0 = phi <2 x float> [ %retval.sroa.0.4.vec.insert.i, %entry ], [ %sideB.sroa.0.4.vec.insert, %_ZN10aiVector3tIfEdVEf.exit.i ]
  %14 = fneg float %sideB.sroa.9.0
  %neg.i20 = fmul float %1, %14
  %15 = extractelement <2 x float> %sideB.sroa.0.0, i64 1
  %16 = tail call float @llvm.fmuladd.f32(float %15, float %4, float %neg.i20)
  %a2.i = getelementptr inbounds i8, ptr %agg.result, i64 4
  %b3.i = getelementptr inbounds i8, ptr %agg.result, i64 24
  %c3.i = getelementptr inbounds i8, ptr %agg.result, i64 40
  %c4.i = getelementptr inbounds i8, ptr %agg.result, i64 44
  %d4.i = getelementptr inbounds i8, ptr %agg.result, i64 60
  %17 = getelementptr inbounds i8, ptr %agg.result, i64 48
  tail call void @llvm.memset.p0.i64(ptr noundef nonnull align 4 dereferenceable(16) %17, i8 0, i64 12, i1 false)
  store float 1.000000e+00, ptr %d4.i, align 4
  store float %16, ptr %agg.result, align 4
  %18 = fneg <2 x float> %sideB.sroa.0.0
  %19 = shufflevector <2 x float> %0, <2 x float> poison, <2 x i32> <i32 poison, i32 0>
  %20 = insertelement <2 x float> %19, float %4, i64 0
  %21 = fmul <2 x float> %20, %18
  %22 = shufflevector <2 x float> %sideB.sroa.0.0, <2 x float> poison, <2 x i32> <i32 poison, i32 0>
  %23 = insertelement <2 x float> %22, float %sideB.sroa.9.0, i64 0
  %24 = tail call <2 x float> @llvm.fmuladd.v2f32(<2 x float> %23, <2 x float> %0, <2 x float> %21)
  store <2 x float> %24, ptr %a2.i, align 4
  %b1 = getelementptr inbounds i8, ptr %agg.result, i64 16
  store <2 x float> %sideB.sroa.0.0, ptr %b1, align 4
  store float %sideB.sroa.9.0, ptr %b3.i, align 4
  %c1 = getelementptr inbounds i8, ptr %agg.result, i64 32
  store <2 x float> %0, ptr %c1, align 4
  store float %4, ptr %c3.i, align 4
  %25 = load float, ptr %plane, align 4
  %a4 = getelementptr inbounds i8, ptr %agg.result, i64 12
  store float %25, ptr %a4, align 4
  %y21 = getelementptr inbounds i8, ptr %plane, i64 4
  %26 = load float, ptr %y21, align 4
  %b4 = getelementptr inbounds i8, ptr %agg.result, i64 28
  store float %26, ptr %b4, align 4
  %z23 = getelementptr inbounds i8, ptr %plane, i64 8
  %27 = load float, ptr %z23, align 4
  store float %27, ptr %c4.i, align 4
  %call24 = tail call noundef nonnull align 4 dereferenceable(64) ptr @_ZN12aiMatrix4x4tIfE7InverseEv(ptr noundef nonnull align 4 dereferenceable(64) %agg.result)
  ret void
}